
StoveNode.elf:     file format elf32-avr

Sections:
Idx Name          Size      VMA       LMA       File off  Algn
  0 .text         000004cc  00000000  00000000  00000094  2**1
                  CONTENTS, ALLOC, LOAD, READONLY, CODE
  1 .data         00000020  00800060  000004cc  00000560  2**0
                  CONTENTS, ALLOC, LOAD, DATA
  2 .bss          00000002  00800080  00800080  00000580  2**0
                  ALLOC
  3 .comment      00000030  00000000  00000000  00000580  2**0
                  CONTENTS, READONLY
  4 .note.gnu.avr.deviceinfo 0000003c  00000000  00000000  000005b0  2**2
                  CONTENTS, READONLY
  5 .debug_aranges 00000118  00000000  00000000  000005ec  2**0
                  CONTENTS, READONLY, DEBUGGING
  6 .debug_info   00000f7f  00000000  00000000  00000704  2**0
                  CONTENTS, READONLY, DEBUGGING
  7 .debug_abbrev 000008ba  00000000  00000000  00001683  2**0
                  CONTENTS, READONLY, DEBUGGING
  8 .debug_line   0000073d  00000000  00000000  00001f3d  2**0
                  CONTENTS, READONLY, DEBUGGING
  9 .debug_frame  000001e0  00000000  00000000  0000267c  2**2
                  CONTENTS, READONLY, DEBUGGING
 10 .debug_str    00000586  00000000  00000000  0000285c  2**0
                  CONTENTS, READONLY, DEBUGGING
 11 .debug_loc    000009c1  00000000  00000000  00002de2  2**0
                  CONTENTS, READONLY, DEBUGGING
 12 .debug_ranges 000000c0  00000000  00000000  000037a3  2**0
                  CONTENTS, READONLY, DEBUGGING

Disassembly of section .text:

00000000 <__vectors>:
   0:	0c 94 34 00 	jmp	0x68	; 0x68 <__ctors_end>
   4:	0c 94 51 00 	jmp	0xa2	; 0xa2 <__bad_interrupt>
   8:	0c 94 51 00 	jmp	0xa2	; 0xa2 <__bad_interrupt>
   c:	0c 94 51 00 	jmp	0xa2	; 0xa2 <__bad_interrupt>
  10:	0c 94 51 00 	jmp	0xa2	; 0xa2 <__bad_interrupt>
  14:	0c 94 51 00 	jmp	0xa2	; 0xa2 <__bad_interrupt>
  18:	0c 94 51 00 	jmp	0xa2	; 0xa2 <__bad_interrupt>
  1c:	0c 94 51 00 	jmp	0xa2	; 0xa2 <__bad_interrupt>
  20:	0c 94 51 00 	jmp	0xa2	; 0xa2 <__bad_interrupt>
  24:	0c 94 51 00 	jmp	0xa2	; 0xa2 <__bad_interrupt>
  28:	0c 94 51 00 	jmp	0xa2	; 0xa2 <__bad_interrupt>
  2c:	0c 94 51 00 	jmp	0xa2	; 0xa2 <__bad_interrupt>
  30:	0c 94 ee 01 	jmp	0x3dc	; 0x3dc <__vector_12>
  34:	0c 94 51 00 	jmp	0xa2	; 0xa2 <__bad_interrupt>
  38:	0c 94 51 00 	jmp	0xa2	; 0xa2 <__bad_interrupt>
  3c:	0c 94 51 00 	jmp	0xa2	; 0xa2 <__bad_interrupt>
  40:	0c 94 51 00 	jmp	0xa2	; 0xa2 <__bad_interrupt>
  44:	0c 94 51 00 	jmp	0xa2	; 0xa2 <__bad_interrupt>
  48:	0c 94 51 00 	jmp	0xa2	; 0xa2 <__bad_interrupt>
  4c:	0c 94 51 00 	jmp	0xa2	; 0xa2 <__bad_interrupt>
  50:	0c 94 51 00 	jmp	0xa2	; 0xa2 <__bad_interrupt>
  54:	21 02       	muls	r18, r17
  56:	26 02       	muls	r18, r22
  58:	2b 02       	muls	r18, r27
  5a:	30 02       	muls	r19, r16
  5c:	35 02       	muls	r19, r21
  5e:	3a 02       	muls	r19, r26
  60:	3f 02       	muls	r19, r31
  62:	44 02       	muls	r20, r20
  64:	49 02       	muls	r20, r25
  66:	4e 02       	muls	r20, r30

00000068 <__ctors_end>:
  68:	11 24       	eor	r1, r1
  6a:	1f be       	out	0x3f, r1	; 63
  6c:	cf e5       	ldi	r28, 0x5F	; 95
  6e:	d8 e0       	ldi	r29, 0x08	; 8
  70:	de bf       	out	0x3e, r29	; 62
  72:	cd bf       	out	0x3d, r28	; 61

00000074 <__do_copy_data>:
  74:	10 e0       	ldi	r17, 0x00	; 0
  76:	a0 e6       	ldi	r26, 0x60	; 96
  78:	b0 e0       	ldi	r27, 0x00	; 0
  7a:	ec ec       	ldi	r30, 0xCC	; 204
  7c:	f4 e0       	ldi	r31, 0x04	; 4
  7e:	02 c0       	rjmp	.+4      	; 0x84 <__do_copy_data+0x10>
  80:	05 90       	lpm	r0, Z+
  82:	0d 92       	st	X+, r0
  84:	a0 38       	cpi	r26, 0x80	; 128
  86:	b1 07       	cpc	r27, r17
  88:	d9 f7       	brne	.-10     	; 0x80 <__do_copy_data+0xc>

0000008a <__do_clear_bss>:
  8a:	20 e0       	ldi	r18, 0x00	; 0
  8c:	a0 e8       	ldi	r26, 0x80	; 128
  8e:	b0 e0       	ldi	r27, 0x00	; 0
  90:	01 c0       	rjmp	.+2      	; 0x94 <.do_clear_bss_start>

00000092 <.do_clear_bss_loop>:
  92:	1d 92       	st	X+, r1

00000094 <.do_clear_bss_start>:
  94:	a2 38       	cpi	r26, 0x82	; 130
  96:	b2 07       	cpc	r27, r18
  98:	e1 f7       	brne	.-8      	; 0x92 <.do_clear_bss_loop>
  9a:	0e 94 dd 01 	call	0x3ba	; 0x3ba <main>
  9e:	0c 94 64 02 	jmp	0x4c8	; 0x4c8 <_exit>

000000a2 <__bad_interrupt>:
  a2:	0c 94 00 00 	jmp	0	; 0x0 <__vectors>

000000a6 <DIO_InitPin>:
		case PD:
		value=PORTD;
		break;
	}
	return value;
}
  a6:	98 2f       	mov	r25, r24
  a8:	96 95       	lsr	r25
  aa:	96 95       	lsr	r25
  ac:	96 95       	lsr	r25
  ae:	87 70       	andi	r24, 0x07	; 7
  b0:	61 30       	cpi	r22, 0x01	; 1
  b2:	09 f4       	brne	.+2      	; 0xb6 <DIO_InitPin+0x10>
  b4:	51 c0       	rjmp	.+162    	; 0x158 <DIO_InitPin+0xb2>
  b6:	20 f0       	brcs	.+8      	; 0xc0 <DIO_InitPin+0x1a>
  b8:	62 30       	cpi	r22, 0x02	; 2
  ba:	09 f4       	brne	.+2      	; 0xbe <DIO_InitPin+0x18>
  bc:	99 c0       	rjmp	.+306    	; 0x1f0 <DIO_InitPin+0x14a>
  be:	08 95       	ret
  c0:	91 30       	cpi	r25, 0x01	; 1
  c2:	b9 f0       	breq	.+46     	; 0xf2 <DIO_InitPin+0x4c>
  c4:	28 f0       	brcs	.+10     	; 0xd0 <DIO_InitPin+0x2a>
  c6:	92 30       	cpi	r25, 0x02	; 2
  c8:	29 f1       	breq	.+74     	; 0x114 <DIO_InitPin+0x6e>
  ca:	93 30       	cpi	r25, 0x03	; 3
  cc:	a1 f1       	breq	.+104    	; 0x136 <DIO_InitPin+0x90>
  ce:	08 95       	ret
  d0:	21 e0       	ldi	r18, 0x01	; 1
  d2:	30 e0       	ldi	r19, 0x00	; 0
  d4:	a9 01       	movw	r20, r18
  d6:	02 c0       	rjmp	.+4      	; 0xdc <DIO_InitPin+0x36>
  d8:	44 0f       	add	r20, r20
  da:	55 1f       	adc	r21, r21
  dc:	8a 95       	dec	r24
  de:	e2 f7       	brpl	.-8      	; 0xd8 <DIO_InitPin+0x32>
  e0:	ca 01       	movw	r24, r20
  e2:	9a b3       	in	r25, 0x1a	; 26
  e4:	98 2b       	or	r25, r24
  e6:	9a bb       	out	0x1a, r25	; 26
  e8:	9b b3       	in	r25, 0x1b	; 27
  ea:	80 95       	com	r24
  ec:	89 23       	and	r24, r25
  ee:	8b bb       	out	0x1b, r24	; 27
  f0:	08 95       	ret
  f2:	21 e0       	ldi	r18, 0x01	; 1
  f4:	30 e0       	ldi	r19, 0x00	; 0
  f6:	a9 01       	movw	r20, r18
  f8:	02 c0       	rjmp	.+4      	; 0xfe <DIO_InitPin+0x58>
  fa:	44 0f       	add	r20, r20
  fc:	55 1f       	adc	r21, r21
  fe:	8a 95       	dec	r24
 100:	e2 f7       	brpl	.-8      	; 0xfa <DIO_InitPin+0x54>
 102:	ca 01       	movw	r24, r20
 104:	97 b3       	in	r25, 0x17	; 23
 106:	98 2b       	or	r25, r24
 108:	97 bb       	out	0x17, r25	; 23
 10a:	98 b3       	in	r25, 0x18	; 24
 10c:	80 95       	com	r24
 10e:	89 23       	and	r24, r25
 110:	88 bb       	out	0x18, r24	; 24
 112:	08 95       	ret
 114:	21 e0       	ldi	r18, 0x01	; 1
 116:	30 e0       	ldi	r19, 0x00	; 0
 118:	a9 01       	movw	r20, r18
 11a:	02 c0       	rjmp	.+4      	; 0x120 <DIO_InitPin+0x7a>
 11c:	44 0f       	add	r20, r20
 11e:	55 1f       	adc	r21, r21
 120:	8a 95       	dec	r24
 122:	e2 f7       	brpl	.-8      	; 0x11c <DIO_InitPin+0x76>
 124:	ca 01       	movw	r24, r20
 126:	94 b3       	in	r25, 0x14	; 20
 128:	98 2b       	or	r25, r24
 12a:	94 bb       	out	0x14, r25	; 20
 12c:	95 b3       	in	r25, 0x15	; 21
 12e:	80 95       	com	r24
 130:	89 23       	and	r24, r25
 132:	85 bb       	out	0x15, r24	; 21
 134:	08 95       	ret
 136:	21 e0       	ldi	r18, 0x01	; 1
 138:	30 e0       	ldi	r19, 0x00	; 0
 13a:	a9 01       	movw	r20, r18
 13c:	02 c0       	rjmp	.+4      	; 0x142 <DIO_InitPin+0x9c>
 13e:	44 0f       	add	r20, r20
 140:	55 1f       	adc	r21, r21
 142:	8a 95       	dec	r24
 144:	e2 f7       	brpl	.-8      	; 0x13e <DIO_InitPin+0x98>
 146:	ca 01       	movw	r24, r20
 148:	91 b3       	in	r25, 0x11	; 17
 14a:	98 2b       	or	r25, r24
 14c:	91 bb       	out	0x11, r25	; 17
 14e:	92 b3       	in	r25, 0x12	; 18
 150:	80 95       	com	r24
 152:	89 23       	and	r24, r25
 154:	82 bb       	out	0x12, r24	; 18
 156:	08 95       	ret
 158:	91 30       	cpi	r25, 0x01	; 1
 15a:	b9 f0       	breq	.+46     	; 0x18a <DIO_InitPin+0xe4>
 15c:	28 f0       	brcs	.+10     	; 0x168 <DIO_InitPin+0xc2>
 15e:	92 30       	cpi	r25, 0x02	; 2
 160:	29 f1       	breq	.+74     	; 0x1ac <DIO_InitPin+0x106>
 162:	93 30       	cpi	r25, 0x03	; 3
 164:	a1 f1       	breq	.+104    	; 0x1ce <DIO_InitPin+0x128>
 166:	08 95       	ret
 168:	21 e0       	ldi	r18, 0x01	; 1
 16a:	30 e0       	ldi	r19, 0x00	; 0
 16c:	a9 01       	movw	r20, r18
 16e:	02 c0       	rjmp	.+4      	; 0x174 <DIO_InitPin+0xce>
 170:	44 0f       	add	r20, r20
 172:	55 1f       	adc	r21, r21
 174:	8a 95       	dec	r24
 176:	e2 f7       	brpl	.-8      	; 0x170 <DIO_InitPin+0xca>
 178:	ca 01       	movw	r24, r20
 17a:	80 95       	com	r24
 17c:	9a b3       	in	r25, 0x1a	; 26
 17e:	98 23       	and	r25, r24
 180:	9a bb       	out	0x1a, r25	; 26
 182:	9b b3       	in	r25, 0x1b	; 27
 184:	89 23       	and	r24, r25
 186:	8b bb       	out	0x1b, r24	; 27
 188:	08 95       	ret
 18a:	21 e0       	ldi	r18, 0x01	; 1
 18c:	30 e0       	ldi	r19, 0x00	; 0
 18e:	a9 01       	movw	r20, r18
 190:	02 c0       	rjmp	.+4      	; 0x196 <DIO_InitPin+0xf0>
 192:	44 0f       	add	r20, r20
 194:	55 1f       	adc	r21, r21
 196:	8a 95       	dec	r24
 198:	e2 f7       	brpl	.-8      	; 0x192 <DIO_InitPin+0xec>
 19a:	ca 01       	movw	r24, r20
 19c:	80 95       	com	r24
 19e:	97 b3       	in	r25, 0x17	; 23
 1a0:	98 23       	and	r25, r24
 1a2:	97 bb       	out	0x17, r25	; 23
 1a4:	98 b3       	in	r25, 0x18	; 24
 1a6:	89 23       	and	r24, r25
 1a8:	88 bb       	out	0x18, r24	; 24
 1aa:	08 95       	ret
 1ac:	21 e0       	ldi	r18, 0x01	; 1
 1ae:	30 e0       	ldi	r19, 0x00	; 0
 1b0:	a9 01       	movw	r20, r18
 1b2:	02 c0       	rjmp	.+4      	; 0x1b8 <DIO_InitPin+0x112>
 1b4:	44 0f       	add	r20, r20
 1b6:	55 1f       	adc	r21, r21
 1b8:	8a 95       	dec	r24
 1ba:	e2 f7       	brpl	.-8      	; 0x1b4 <DIO_InitPin+0x10e>
 1bc:	ca 01       	movw	r24, r20
 1be:	80 95       	com	r24
 1c0:	94 b3       	in	r25, 0x14	; 20
 1c2:	98 23       	and	r25, r24
 1c4:	94 bb       	out	0x14, r25	; 20
 1c6:	95 b3       	in	r25, 0x15	; 21
 1c8:	89 23       	and	r24, r25
 1ca:	85 bb       	out	0x15, r24	; 21
 1cc:	08 95       	ret
 1ce:	21 e0       	ldi	r18, 0x01	; 1
 1d0:	30 e0       	ldi	r19, 0x00	; 0
 1d2:	a9 01       	movw	r20, r18
 1d4:	02 c0       	rjmp	.+4      	; 0x1da <DIO_InitPin+0x134>
 1d6:	44 0f       	add	r20, r20
 1d8:	55 1f       	adc	r21, r21
 1da:	8a 95       	dec	r24
 1dc:	e2 f7       	brpl	.-8      	; 0x1d6 <DIO_InitPin+0x130>
 1de:	ca 01       	movw	r24, r20
 1e0:	80 95       	com	r24
 1e2:	91 b3       	in	r25, 0x11	; 17
 1e4:	98 23       	and	r25, r24
 1e6:	91 bb       	out	0x11, r25	; 17
 1e8:	92 b3       	in	r25, 0x12	; 18
 1ea:	89 23       	and	r24, r25
 1ec:	82 bb       	out	0x12, r24	; 18
 1ee:	08 95       	ret
 1f0:	91 30       	cpi	r25, 0x01	; 1
 1f2:	c1 f0       	breq	.+48     	; 0x224 <DIO_InitPin+0x17e>
 1f4:	28 f0       	brcs	.+10     	; 0x200 <DIO_InitPin+0x15a>
 1f6:	92 30       	cpi	r25, 0x02	; 2
 1f8:	39 f1       	breq	.+78     	; 0x248 <DIO_InitPin+0x1a2>
 1fa:	93 30       	cpi	r25, 0x03	; 3
 1fc:	b9 f1       	breq	.+110    	; 0x26c <DIO_InitPin+0x1c6>
 1fe:	08 95       	ret
 200:	21 e0       	ldi	r18, 0x01	; 1
 202:	30 e0       	ldi	r19, 0x00	; 0
 204:	a9 01       	movw	r20, r18
 206:	02 c0       	rjmp	.+4      	; 0x20c <DIO_InitPin+0x166>
 208:	44 0f       	add	r20, r20
 20a:	55 1f       	adc	r21, r21
 20c:	8a 95       	dec	r24
 20e:	e2 f7       	brpl	.-8      	; 0x208 <DIO_InitPin+0x162>
 210:	ca 01       	movw	r24, r20
 212:	9a b3       	in	r25, 0x1a	; 26
 214:	28 2f       	mov	r18, r24
 216:	20 95       	com	r18
 218:	92 23       	and	r25, r18
 21a:	9a bb       	out	0x1a, r25	; 26
 21c:	9b b3       	in	r25, 0x1b	; 27
 21e:	89 2b       	or	r24, r25
 220:	8b bb       	out	0x1b, r24	; 27
 222:	08 95       	ret
 224:	21 e0       	ldi	r18, 0x01	; 1
 226:	30 e0       	ldi	r19, 0x00	; 0
 228:	a9 01       	movw	r20, r18
 22a:	02 c0       	rjmp	.+4      	; 0x230 <DIO_InitPin+0x18a>
 22c:	44 0f       	add	r20, r20
 22e:	55 1f       	adc	r21, r21
 230:	8a 95       	dec	r24
 232:	e2 f7       	brpl	.-8      	; 0x22c <DIO_InitPin+0x186>
 234:	ca 01       	movw	r24, r20
 236:	97 b3       	in	r25, 0x17	; 23
 238:	28 2f       	mov	r18, r24
 23a:	20 95       	com	r18
 23c:	92 23       	and	r25, r18
 23e:	97 bb       	out	0x17, r25	; 23
 240:	98 b3       	in	r25, 0x18	; 24
 242:	89 2b       	or	r24, r25
 244:	88 bb       	out	0x18, r24	; 24
 246:	08 95       	ret
 248:	21 e0       	ldi	r18, 0x01	; 1
 24a:	30 e0       	ldi	r19, 0x00	; 0
 24c:	a9 01       	movw	r20, r18
 24e:	02 c0       	rjmp	.+4      	; 0x254 <DIO_InitPin+0x1ae>
 250:	44 0f       	add	r20, r20
 252:	55 1f       	adc	r21, r21
 254:	8a 95       	dec	r24
 256:	e2 f7       	brpl	.-8      	; 0x250 <DIO_InitPin+0x1aa>
 258:	ca 01       	movw	r24, r20
 25a:	94 b3       	in	r25, 0x14	; 20
 25c:	28 2f       	mov	r18, r24
 25e:	20 95       	com	r18
 260:	92 23       	and	r25, r18
 262:	94 bb       	out	0x14, r25	; 20
 264:	95 b3       	in	r25, 0x15	; 21
 266:	89 2b       	or	r24, r25
 268:	85 bb       	out	0x15, r24	; 21
 26a:	08 95       	ret
 26c:	21 e0       	ldi	r18, 0x01	; 1
 26e:	30 e0       	ldi	r19, 0x00	; 0
 270:	a9 01       	movw	r20, r18
 272:	02 c0       	rjmp	.+4      	; 0x278 <DIO_InitPin+0x1d2>
 274:	44 0f       	add	r20, r20
 276:	55 1f       	adc	r21, r21
 278:	8a 95       	dec	r24
 27a:	e2 f7       	brpl	.-8      	; 0x274 <DIO_InitPin+0x1ce>
 27c:	ca 01       	movw	r24, r20
 27e:	91 b3       	in	r25, 0x11	; 17
 280:	28 2f       	mov	r18, r24
 282:	20 95       	com	r18
 284:	92 23       	and	r25, r18
 286:	91 bb       	out	0x11, r25	; 17
 288:	92 b3       	in	r25, 0x12	; 18
 28a:	89 2b       	or	r24, r25
 28c:	82 bb       	out	0x12, r24	; 18
 28e:	08 95       	ret

00000290 <DIO_WritePin>:
 290:	98 2f       	mov	r25, r24
 292:	96 95       	lsr	r25
 294:	96 95       	lsr	r25
 296:	96 95       	lsr	r25
 298:	87 70       	andi	r24, 0x07	; 7
 29a:	61 30       	cpi	r22, 0x01	; 1
 29c:	e1 f5       	brne	.+120    	; 0x316 <DIO_WritePin+0x86>
 29e:	91 30       	cpi	r25, 0x01	; 1
 2a0:	99 f0       	breq	.+38     	; 0x2c8 <DIO_WritePin+0x38>
 2a2:	28 f0       	brcs	.+10     	; 0x2ae <DIO_WritePin+0x1e>
 2a4:	92 30       	cpi	r25, 0x02	; 2
 2a6:	e9 f0       	breq	.+58     	; 0x2e2 <DIO_WritePin+0x52>
 2a8:	93 30       	cpi	r25, 0x03	; 3
 2aa:	41 f1       	breq	.+80     	; 0x2fc <DIO_WritePin+0x6c>
 2ac:	08 95       	ret
 2ae:	21 e0       	ldi	r18, 0x01	; 1
 2b0:	30 e0       	ldi	r19, 0x00	; 0
 2b2:	a9 01       	movw	r20, r18
 2b4:	02 c0       	rjmp	.+4      	; 0x2ba <DIO_WritePin+0x2a>
 2b6:	44 0f       	add	r20, r20
 2b8:	55 1f       	adc	r21, r21
 2ba:	8a 95       	dec	r24
 2bc:	e2 f7       	brpl	.-8      	; 0x2b6 <DIO_WritePin+0x26>
 2be:	ca 01       	movw	r24, r20
 2c0:	9b b3       	in	r25, 0x1b	; 27
 2c2:	89 2b       	or	r24, r25
 2c4:	8b bb       	out	0x1b, r24	; 27
 2c6:	08 95       	ret
 2c8:	21 e0       	ldi	r18, 0x01	; 1
 2ca:	30 e0       	ldi	r19, 0x00	; 0
 2cc:	a9 01       	movw	r20, r18
 2ce:	02 c0       	rjmp	.+4      	; 0x2d4 <DIO_WritePin+0x44>
 2d0:	44 0f       	add	r20, r20
 2d2:	55 1f       	adc	r21, r21
 2d4:	8a 95       	dec	r24
 2d6:	e2 f7       	brpl	.-8      	; 0x2d0 <DIO_WritePin+0x40>
 2d8:	ca 01       	movw	r24, r20
 2da:	98 b3       	in	r25, 0x18	; 24
 2dc:	89 2b       	or	r24, r25
 2de:	88 bb       	out	0x18, r24	; 24
 2e0:	08 95       	ret
 2e2:	21 e0       	ldi	r18, 0x01	; 1
 2e4:	30 e0       	ldi	r19, 0x00	; 0
 2e6:	a9 01       	movw	r20, r18
 2e8:	02 c0       	rjmp	.+4      	; 0x2ee <DIO_WritePin+0x5e>
 2ea:	44 0f       	add	r20, r20
 2ec:	55 1f       	adc	r21, r21
 2ee:	8a 95       	dec	r24
 2f0:	e2 f7       	brpl	.-8      	; 0x2ea <DIO_WritePin+0x5a>
 2f2:	ca 01       	movw	r24, r20
 2f4:	95 b3       	in	r25, 0x15	; 21
 2f6:	89 2b       	or	r24, r25
 2f8:	85 bb       	out	0x15, r24	; 21
 2fa:	08 95       	ret
 2fc:	21 e0       	ldi	r18, 0x01	; 1
 2fe:	30 e0       	ldi	r19, 0x00	; 0
 300:	a9 01       	movw	r20, r18
 302:	02 c0       	rjmp	.+4      	; 0x308 <DIO_WritePin+0x78>
 304:	44 0f       	add	r20, r20
 306:	55 1f       	adc	r21, r21
 308:	8a 95       	dec	r24
 30a:	e2 f7       	brpl	.-8      	; 0x304 <DIO_WritePin+0x74>
 30c:	ca 01       	movw	r24, r20
 30e:	92 b3       	in	r25, 0x12	; 18
 310:	89 2b       	or	r24, r25
 312:	82 bb       	out	0x12, r24	; 18
 314:	08 95       	ret
 316:	61 11       	cpse	r22, r1
 318:	3f c0       	rjmp	.+126    	; 0x398 <DIO_WritePin+0x108>
 31a:	91 30       	cpi	r25, 0x01	; 1
 31c:	a1 f0       	breq	.+40     	; 0x346 <DIO_WritePin+0xb6>
 31e:	28 f0       	brcs	.+10     	; 0x32a <DIO_WritePin+0x9a>
 320:	92 30       	cpi	r25, 0x02	; 2
 322:	f9 f0       	breq	.+62     	; 0x362 <DIO_WritePin+0xd2>
 324:	93 30       	cpi	r25, 0x03	; 3
 326:	59 f1       	breq	.+86     	; 0x37e <DIO_WritePin+0xee>
 328:	08 95       	ret
 32a:	21 e0       	ldi	r18, 0x01	; 1
 32c:	30 e0       	ldi	r19, 0x00	; 0
 32e:	a9 01       	movw	r20, r18
 330:	02 c0       	rjmp	.+4      	; 0x336 <DIO_WritePin+0xa6>
 332:	44 0f       	add	r20, r20
 334:	55 1f       	adc	r21, r21
 336:	8a 95       	dec	r24
 338:	e2 f7       	brpl	.-8      	; 0x332 <DIO_WritePin+0xa2>
 33a:	ca 01       	movw	r24, r20
 33c:	9b b3       	in	r25, 0x1b	; 27
 33e:	80 95       	com	r24
 340:	89 23       	and	r24, r25
 342:	8b bb       	out	0x1b, r24	; 27
 344:	08 95       	ret
 346:	21 e0       	ldi	r18, 0x01	; 1
 348:	30 e0       	ldi	r19, 0x00	; 0
 34a:	a9 01       	movw	r20, r18
 34c:	02 c0       	rjmp	.+4      	; 0x352 <DIO_WritePin+0xc2>
 34e:	44 0f       	add	r20, r20
 350:	55 1f       	adc	r21, r21
 352:	8a 95       	dec	r24
 354:	e2 f7       	brpl	.-8      	; 0x34e <DIO_WritePin+0xbe>
 356:	ca 01       	movw	r24, r20
 358:	98 b3       	in	r25, 0x18	; 24
 35a:	80 95       	com	r24
 35c:	89 23       	and	r24, r25
 35e:	88 bb       	out	0x18, r24	; 24
 360:	08 95       	ret
 362:	21 e0       	ldi	r18, 0x01	; 1
 364:	30 e0       	ldi	r19, 0x00	; 0
 366:	a9 01       	movw	r20, r18
 368:	02 c0       	rjmp	.+4      	; 0x36e <DIO_WritePin+0xde>
 36a:	44 0f       	add	r20, r20
 36c:	55 1f       	adc	r21, r21
 36e:	8a 95       	dec	r24
 370:	e2 f7       	brpl	.-8      	; 0x36a <DIO_WritePin+0xda>
 372:	ca 01       	movw	r24, r20
 374:	95 b3       	in	r25, 0x15	; 21
 376:	80 95       	com	r24
 378:	89 23       	and	r24, r25
 37a:	85 bb       	out	0x15, r24	; 21
 37c:	08 95       	ret
 37e:	21 e0       	ldi	r18, 0x01	; 1
 380:	30 e0       	ldi	r19, 0x00	; 0
 382:	a9 01       	movw	r20, r18
 384:	02 c0       	rjmp	.+4      	; 0x38a <DIO_WritePin+0xfa>
 386:	44 0f       	add	r20, r20
 388:	55 1f       	adc	r21, r21
 38a:	8a 95       	dec	r24
 38c:	e2 f7       	brpl	.-8      	; 0x386 <DIO_WritePin+0xf6>
 38e:	ca 01       	movw	r24, r20
 390:	92 b3       	in	r25, 0x12	; 18
 392:	80 95       	com	r24
 394:	89 23       	and	r24, r25
 396:	82 bb       	out	0x12, r24	; 18
 398:	08 95       	ret

0000039a <DIO_Init>:

void DIO_Init(void)
{
 39a:	cf 93       	push	r28
	DIO_Pin_type i=PINA0;
	for(i=PINA0;i<TOTAL_PINS;i++)
 39c:	c0 e0       	ldi	r28, 0x00	; 0
 39e:	09 c0       	rjmp	.+18     	; 0x3b2 <DIO_Init+0x18>
	{
		DIO_InitPin(i,PinStatusArray[i]);
 3a0:	ec 2f       	mov	r30, r28
 3a2:	f0 e0       	ldi	r31, 0x00	; 0
 3a4:	e0 5a       	subi	r30, 0xA0	; 160
 3a6:	ff 4f       	sbci	r31, 0xFF	; 255
 3a8:	60 81       	ld	r22, Z
 3aa:	8c 2f       	mov	r24, r28
 3ac:	0e 94 53 00 	call	0xa6	; 0xa6 <DIO_InitPin>
}

void DIO_Init(void)
{
	DIO_Pin_type i=PINA0;
	for(i=PINA0;i<TOTAL_PINS;i++)
 3b0:	cf 5f       	subi	r28, 0xFF	; 255
 3b2:	c0 32       	cpi	r28, 0x20	; 32
 3b4:	a8 f3       	brcs	.-22     	; 0x3a0 <DIO_Init+0x6>
	{
		DIO_InitPin(i,PinStatusArray[i]);
		
	}
}
 3b6:	cf 91       	pop	r28
 3b8:	08 95       	ret

000003ba <main>:



int main(void)
{
	STOVE_Init();
 3ba:	0e 94 53 02 	call	0x4a6	; 0x4a6 <STOVE_Init>
    while (1) 
    {
		STOVE_Runnable();
 3be:	0e 94 58 02 	call	0x4b0	; 0x4b0 <STOVE_Runnable>
 3c2:	fd cf       	rjmp	.-6      	; 0x3be <main+0x4>

000003c4 <SPI_Init>:
	CLR_BIT(SPCR,SPIE);
}

void SPI_SetCallBack(void(*LocalFptr)(void))
{
	SPI_Fptr=LocalFptr;
 3c4:	8d b1       	in	r24, 0x0d	; 13
 3c6:	8f 7e       	andi	r24, 0xEF	; 239
 3c8:	8d b9       	out	0x0d, r24	; 13
 3ca:	8d b1       	in	r24, 0x0d	; 13
 3cc:	80 64       	ori	r24, 0x40	; 64
 3ce:	8d b9       	out	0x0d, r24	; 13
 3d0:	08 95       	ret

000003d2 <SPI_SendReceieve>:
 3d2:	8f b9       	out	0x0f, r24	; 15
 3d4:	77 9b       	sbis	0x0e, 7	; 14
 3d6:	fe cf       	rjmp	.-4      	; 0x3d4 <SPI_SendReceieve+0x2>
 3d8:	8f b1       	in	r24, 0x0f	; 15
 3da:	08 95       	ret

000003dc <__vector_12>:
}

ISR(SPI_vect)
{
 3dc:	1f 92       	push	r1
 3de:	0f 92       	push	r0
 3e0:	0f b6       	in	r0, 0x3f	; 63
 3e2:	0f 92       	push	r0
 3e4:	11 24       	eor	r1, r1
 3e6:	2f 93       	push	r18
 3e8:	3f 93       	push	r19
 3ea:	4f 93       	push	r20
 3ec:	5f 93       	push	r21
 3ee:	6f 93       	push	r22
 3f0:	7f 93       	push	r23
 3f2:	8f 93       	push	r24
 3f4:	9f 93       	push	r25
 3f6:	af 93       	push	r26
 3f8:	bf 93       	push	r27
 3fa:	ef 93       	push	r30
 3fc:	ff 93       	push	r31
	if(SPI_Fptr!=NULL_PTR)
 3fe:	e0 91 80 00 	lds	r30, 0x0080	; 0x800080 <__data_end>
 402:	f0 91 81 00 	lds	r31, 0x0081	; 0x800081 <__data_end+0x1>
 406:	30 97       	sbiw	r30, 0x00	; 0
 408:	09 f0       	breq	.+2      	; 0x40c <__EEPROM_REGION_LENGTH__+0xc>
	{
		SPI_Fptr();
 40a:	09 95       	icall
	}
 40c:	ff 91       	pop	r31
 40e:	ef 91       	pop	r30
 410:	bf 91       	pop	r27
 412:	af 91       	pop	r26
 414:	9f 91       	pop	r25
 416:	8f 91       	pop	r24
 418:	7f 91       	pop	r23
 41a:	6f 91       	pop	r22
 41c:	5f 91       	pop	r21
 41e:	4f 91       	pop	r20
 420:	3f 91       	pop	r19
 422:	2f 91       	pop	r18
 424:	0f 90       	pop	r0
 426:	0f be       	out	0x3f, r0	; 63
 428:	0f 90       	pop	r0
 42a:	1f 90       	pop	r1
 42c:	18 95       	reti

0000042e <STOVE_FLAMEOnOff>:

static u8 FLAME_State =FLAMES_DEFAULT;
static void STOVE_FLAMEOnOff(u8 FLAME_state)
{
	
	   switch(FLAME_state)
 42e:	90 e0       	ldi	r25, 0x00	; 0
 430:	fc 01       	movw	r30, r24
 432:	31 97       	sbiw	r30, 0x01	; 1
 434:	ea 30       	cpi	r30, 0x0A	; 10
 436:	f1 05       	cpc	r31, r1
 438:	a8 f5       	brcc	.+106    	; 0x4a4 <STOVE_FLAMEOnOff+0x76>
 43a:	e6 5d       	subi	r30, 0xD6	; 214
 43c:	ff 4f       	sbci	r31, 0xFF	; 255
 43e:	0c 94 5e 02 	jmp	0x4bc	; 0x4bc <__tablejump2__>
	 	 {
	 		 case FLAME1_ON:
	 		 DIO_WritePin(PINC0,HIGH);break;
 442:	61 e0       	ldi	r22, 0x01	; 1
 444:	80 e1       	ldi	r24, 0x10	; 16
 446:	0e 94 48 01 	call	0x290	; 0x290 <DIO_WritePin>
 44a:	08 95       	ret
	 		 case FLAME1_OFF:
	 		 DIO_WritePin(PINC0,LOW);break;
 44c:	60 e0       	ldi	r22, 0x00	; 0
 44e:	80 e1       	ldi	r24, 0x10	; 16
 450:	0e 94 48 01 	call	0x290	; 0x290 <DIO_WritePin>
 454:	08 95       	ret
	 		 case FLAME2_ON:
	 		 DIO_WritePin(PINC1,HIGH);break;
 456:	61 e0       	ldi	r22, 0x01	; 1
 458:	81 e1       	ldi	r24, 0x11	; 17
 45a:	0e 94 48 01 	call	0x290	; 0x290 <DIO_WritePin>
 45e:	08 95       	ret
	 		 case FLAME2_OFF:
	 		 DIO_WritePin(PINC1,LOW);break;
 460:	60 e0       	ldi	r22, 0x00	; 0
 462:	81 e1       	ldi	r24, 0x11	; 17
 464:	0e 94 48 01 	call	0x290	; 0x290 <DIO_WritePin>
 468:	08 95       	ret
	 		 case FLAME3_ON:
	 		 DIO_WritePin(PINC2,HIGH);break;
 46a:	61 e0       	ldi	r22, 0x01	; 1
 46c:	82 e1       	ldi	r24, 0x12	; 18
 46e:	0e 94 48 01 	call	0x290	; 0x290 <DIO_WritePin>
 472:	08 95       	ret
	 		 case FLAME3_OFF:
	 		 DIO_WritePin(PINC2,LOW);break;
 474:	60 e0       	ldi	r22, 0x00	; 0
 476:	82 e1       	ldi	r24, 0x12	; 18
 478:	0e 94 48 01 	call	0x290	; 0x290 <DIO_WritePin>
 47c:	08 95       	ret
	 		 case FLAME4_ON:
	 		 DIO_WritePin(PINC3,HIGH);break;
 47e:	61 e0       	ldi	r22, 0x01	; 1
 480:	83 e1       	ldi	r24, 0x13	; 19
 482:	0e 94 48 01 	call	0x290	; 0x290 <DIO_WritePin>
 486:	08 95       	ret
	 		 case FLAME4_OFF:
	 		 DIO_WritePin(PINC3,LOW);break;
 488:	60 e0       	ldi	r22, 0x00	; 0
 48a:	83 e1       	ldi	r24, 0x13	; 19
 48c:	0e 94 48 01 	call	0x290	; 0x290 <DIO_WritePin>
 490:	08 95       	ret
	 		 case FLAME5_ON:
	 		 DIO_WritePin(PINC4,HIGH);break;
 492:	61 e0       	ldi	r22, 0x01	; 1
 494:	84 e1       	ldi	r24, 0x14	; 20
 496:	0e 94 48 01 	call	0x290	; 0x290 <DIO_WritePin>
 49a:	08 95       	ret
	 		 case FLAME5_OFF:
	 		 DIO_WritePin(PINC4,LOW);break;
 49c:	60 e0       	ldi	r22, 0x00	; 0
 49e:	84 e1       	ldi	r24, 0x14	; 20
 4a0:	0e 94 48 01 	call	0x290	; 0x290 <DIO_WritePin>
 4a4:	08 95       	ret

000004a6 <STOVE_Init>:
		  FLAME_State=FLAMES_DEFAULT;
}

 void STOVE_Init(void)
 {
	 DIO_Init();
 4a6:	0e 94 cd 01 	call	0x39a	; 0x39a <DIO_Init>
	 SPI_Init(); 
 4aa:	0e 94 e2 01 	call	0x3c4	; 0x3c4 <SPI_Init>
 4ae:	08 95       	ret

000004b0 <STOVE_Runnable>:
 }
 void STOVE_Runnable()
 {
	 FLAME_State=SPI_SendReceieve(FLAMES_DEFAULT);
 4b0:	84 e1       	ldi	r24, 0x14	; 20
 4b2:	0e 94 e9 01 	call	0x3d2	; 0x3d2 <SPI_SendReceieve>
	STOVE_FLAMEOnOff(FLAME_State);
 4b6:	0e 94 17 02 	call	0x42e	; 0x42e <STOVE_FLAMEOnOff>
 4ba:	08 95       	ret

000004bc <__tablejump2__>:
 4bc:	ee 0f       	add	r30, r30
 4be:	ff 1f       	adc	r31, r31
 4c0:	05 90       	lpm	r0, Z+
 4c2:	f4 91       	lpm	r31, Z
 4c4:	e0 2d       	mov	r30, r0
 4c6:	09 94       	ijmp

000004c8 <_exit>:
 4c8:	f8 94       	cli

000004ca <__stop_program>:
 4ca:	ff cf       	rjmp	.-2      	; 0x4ca <__stop_program>
